target datalayout = "e-m:e-p270:32:32-p271:32:32-p272:64:64-i64:64-i128:128-f80:128-n8:16:32:64-S128"
target triple = "x86_64-pc-linux-gnu"

%struct.GlobalContext = type { %struct.HTable, ptr, ptr, ptr, ptr, ptr, ptr, ptr, ptr, i8, i32, i32, i32, ptr, ptr, %struct.HTable, %struct.HTable, %struct.Module_, %struct.DeclTable, %struct.DeclTable, %struct.Path_, ptr, ptr, ptr, ptr, ptr, ptr, ptr, [65536 x ptr], ptr, ptr, ptr }
%struct.HTable = type { i32, ptr }
%struct.Module_ = type { ptr, ptr, ptr, i16, i32, ptr, %struct.HTable, ptr, ptr, ptr, ptr, ptr, ptr, ptr, ptr, ptr }
%struct.DeclTable = type { i32, i32, i32, ptr }
%struct.Path_ = type { %union.SourceSpan, ptr, i32 }
%union.SourceSpan = type { i64 }

@.str = private unnamed_addr constant [36 x i8] c"FATAL ERROR %s -> in %s @ in %s:%d \00", align 1
@.str.2 = private unnamed_addr constant [118 x i8] c"generated/home/dtcxzyw/WorkSpace/Projects/compilers/llvm-opt-benchmark/bench/c3c/c3c/src/compiler/semantic_analyser.c\00", align 1
@global_context = external global %struct.GlobalContext, align 8
@.str.6 = private unnamed_addr constant [22 x i8] c"Should be unreachable\00", align 1
@__func__.sema_analyze_stage = private unnamed_addr constant [19 x i8] c"sema_analyze_stage\00", align 1

; Function Attrs: nounwind uwtable
define dso_local void @sema_analyze_stage(ptr noundef %0, i32 noundef %1) #0 {
  %3 = alloca ptr, align 8
  %4 = alloca i32, align 4
  store ptr %0, ptr %3, align 8
  store i32 %1, ptr %4, align 4
  br label %5

5:                                                ; preds = %64, %2
  %6 = load ptr, ptr %3, align 8
  %7 = getelementptr inbounds %struct.Module_, ptr %6, i32 0, i32 3
  %8 = load i16, ptr %7, align 8
  %9 = lshr i16 %8, 5
  %10 = and i16 %9, 63
  %11 = zext i16 %10 to i32
  %12 = load i32, ptr %4, align 4
  %13 = icmp ult i32 %11, %12
  br i1 %13, label %14, label %65

14:                                               ; preds = %5
  store ptr getelementptr inbounds (%struct.GlobalContext, ptr @global_context, i32 0, i32 28), ptr getelementptr inbounds (%struct.GlobalContext, ptr @global_context, i32 0, i32 30), align 8
  store ptr getelementptr inbounds (%struct.GlobalContext, ptr @global_context, i32 0, i32 28), ptr getelementptr inbounds (%struct.GlobalContext, ptr @global_context, i32 0, i32 29), align 8
  %15 = load ptr, ptr %3, align 8
  %16 = getelementptr inbounds %struct.Module_, ptr %15, i32 0, i32 3
  %17 = load i16, ptr %16, align 8
  %18 = lshr i16 %17, 5
  %19 = and i16 %18, 63
  %20 = zext i16 %19 to i32
  %21 = add i32 %20, 1
  %22 = trunc i32 %21 to i16
  %23 = load i16, ptr %16, align 8
  %24 = and i16 %22, 63
  %25 = shl i16 %24, 5
  %26 = and i16 %23, -2017
  %27 = or i16 %26, %25
  store i16 %27, ptr %16, align 8
  %28 = load ptr, ptr %3, align 8
  %29 = getelementptr inbounds %struct.Module_, ptr %28, i32 0, i32 3
  %30 = load i16, ptr %29, align 8
  %31 = lshr i16 %30, 5
  %32 = and i16 %31, 63
  %33 = zext i16 %32 to i32
  switch i32 %33, label %60 [
    i32 0, label %34
    i32 1, label %37
    i32 2, label %39
    i32 3, label %41
    i32 4, label %43
    i32 5, label %45
    i32 6, label %47
    i32 7, label %49
    i32 8, label %51
    i32 9, label %53
    i32 10, label %55
    i32 11, label %57
    i32 12, label %59
  ]

34:                                               ; preds = %14
  br label %35

35:                                               ; preds = %34
  call void (ptr, ...) @error_exit(ptr noundef @.str, ptr noundef @.str.6, ptr noundef @__func__.sema_analyze_stage, ptr noundef @.str.2, i32 noundef 144) #6
  unreachable

36:                                               ; No predecessors!
  br label %37

37:                                               ; preds = %36, %14
  %38 = load ptr, ptr %3, align 8
  call void @sema_analyse_pass_module_hierarchy(ptr noundef %38)
  br label %60

39:                                               ; preds = %14
  %40 = load ptr, ptr %3, align 8
  call void @sema_analyse_pass_top(ptr noundef %40)
  br label %60

41:                                               ; preds = %14
  %42 = load ptr, ptr %3, align 8
  call void @sema_analysis_pass_process_imports(ptr noundef %42)
  br label %60

43:                                               ; preds = %14
  %44 = load ptr, ptr %3, align 8
  call void @sema_analysis_pass_register_global_declarations(ptr noundef %44)
  br label %60

45:                                               ; preds = %14
  %46 = load ptr, ptr %3, align 8
  call void @sema_analysis_pass_register_conditional_units(ptr noundef %46)
  br label %60

47:                                               ; preds = %14
  %48 = load ptr, ptr %3, align 8
  call void @sema_analysis_pass_register_conditional_declarations(ptr noundef %48)
  br label %60

49:                                               ; preds = %14
  %50 = load ptr, ptr %3, align 8
  call void @sema_analysis_pass_decls(ptr noundef %50)
  br label %60

51:                                               ; preds = %14
  %52 = load ptr, ptr %3, align 8
  call void @sema_analysis_pass_ct_echo(ptr noundef %52)
  br label %60

53:                                               ; preds = %14
  %54 = load ptr, ptr %3, align 8
  call void @sema_analysis_pass_ct_assert(ptr noundef %54)
  br label %60

55:                                               ; preds = %14
  %56 = load ptr, ptr %3, align 8
  call void @sema_analysis_pass_functions(ptr noundef %56)
  br label %60

57:                                               ; preds = %14
  %58 = load ptr, ptr %3, align 8
  call void @sema_analysis_pass_interface(ptr noundef %58)
  br label %60

59:                                               ; preds = %14
  br label %60

60:                                               ; preds = %59, %57, %55, %53, %51, %49, %47, %45, %43, %41, %39, %37, %14
  %61 = load i32, ptr getelementptr inbounds (%struct.GlobalContext, ptr @global_context, i32 0, i32 10), align 4
  %62 = icmp ne i32 %61, 0
  br i1 %62, label %63, label %64

63:                                               ; preds = %60
  br label %65

64:                                               ; preds = %60
  br label %5, !llvm.loop !10

65:                                               ; preds = %63, %5
  ret void
}