; Function Attrs: nounwind uwtable
define dso_local void @sema_analyze_stage(ptr noundef %0, i32 noundef %1) local_unnamed_addr #0 {
  %3 = getelementptr inbounds i8, ptr %0, i64 24
  br label %4

4:                                                ; preds = %30, %2
  %5 = load i16, ptr %3, align 8
  %6 = lshr i16 %5, 5
  %7 = and i16 %6, 63
  %8 = zext nneg i16 %7 to i32
  %9 = icmp ult i32 %8, %1
  br i1 %9, label %10, label %32

10:                                               ; preds = %4
  store ptr getelementptr inbounds (%struct.GlobalContext, ptr @global_context, i64 0, i32 28), ptr getelementptr inbounds (%struct.GlobalContext, ptr @global_context, i64 0, i32 30), align 8
  store ptr getelementptr inbounds (%struct.GlobalContext, ptr @global_context, i64 0, i32 28), ptr getelementptr inbounds (%struct.GlobalContext, ptr @global_context, i64 0, i32 29), align 8
  %11 = load i16, ptr %3, align 8
  %12 = add i16 %11, 32
  %13 = and i16 %12, 2016
  %14 = and i16 %11, -2017
  %15 = or disjoint i16 %13, %14
  store i16 %15, ptr %3, align 8
  %16 = lshr i16 %12, 5
  %17 = and i16 %16, 63
  switch i16 %17, label %30 [
    i16 0, label %18
    i16 1, label %19
    i16 2, label %20
    i16 3, label %21
    i16 4, label %22
    i16 5, label %23
    i16 6, label %24
    i16 7, label %25
    i16 8, label %26
    i16 9, label %27
    i16 10, label %28
    i16 11, label %29
  ]

18:                                               ; preds = %10
  tail call void (ptr, ...) @error_exit(ptr noundef nonnull @.str, ptr noundef nonnull @.str.6, ptr noundef nonnull @__func__.sema_analyze_stage, ptr noundef nonnull @.str.2, i32 noundef 144) #9
  unreachable

19:                                               ; preds = %10
  tail call void @sema_analyse_pass_module_hierarchy(ptr noundef nonnull %0) #10
  br label %30

20:                                               ; preds = %10
  tail call void @sema_analyse_pass_top(ptr noundef nonnull %0) #10
  br label %30

21:                                               ; preds = %10
  tail call void @sema_analysis_pass_process_imports(ptr noundef nonnull %0) #10
  br label %30

22:                                               ; preds = %10
  tail call void @sema_analysis_pass_register_global_declarations(ptr noundef nonnull %0) #10
  br label %30

23:                                               ; preds = %10
  tail call void @sema_analysis_pass_register_conditional_units(ptr noundef nonnull %0) #10
  br label %30

24:                                               ; preds = %10
  tail call void @sema_analysis_pass_register_conditional_declarations(ptr noundef nonnull %0) #10
  br label %30

25:                                               ; preds = %10
  tail call void @sema_analysis_pass_decls(ptr noundef nonnull %0) #10
  br label %30

26:                                               ; preds = %10
  tail call void @sema_analysis_pass_ct_echo(ptr noundef nonnull %0) #10
  br label %30

27:                                               ; preds = %10
  tail call void @sema_analysis_pass_ct_assert(ptr noundef nonnull %0) #10
  br label %30

28:                                               ; preds = %10
  tail call void @sema_analysis_pass_functions(ptr noundef nonnull %0) #10
  br label %30

29:                                               ; preds = %10
  tail call void @sema_analysis_pass_interface(ptr noundef nonnull %0) #10
  br label %30

30:                                               ; preds = %29, %28, %27, %26, %25, %24, %23, %22, %21, %20, %19, %10
  %31 = load i32, ptr getelementptr inbounds (%struct.GlobalContext, ptr @global_context, i64 0, i32 10), align 4
  %.not = icmp eq i32 %31, 0
  br i1 %.not, label %4, label %32, !llvm.loop !10

32:                                               ; preds = %30, %4
  ret void
}